target datalayout = "e-m:e-p270:32:32-p271:32:32-p272:64:64-i64:64-i128:128-f80:128-n8:16:32:64-S128"
target triple = "x86_64-pc-linux-gnu"

%struct.expert_field = type { i32, i32 }

@ei_reload_truncated_field = internal global %struct.expert_field zeroinitializer, align 4
@hf_reload_length_uint32 = internal global i32 0, align 4
@hf_reload_fetchans = internal global i32 0, align 4
@ett_reload_fetchans = internal global i32 0, align 4
@.str.721 = private unnamed_addr constant [19 x i8] c"Truncated FetchAns\00", align 1

; Function Attrs: null_pointer_is_valid sspstrong uwtable
define internal i32 @dissect_fetchans(ptr noundef %0, ptr noundef %1, ptr noundef %2, i16 noundef zeroext %3, i16 noundef zeroext %4) #0 {
  %6 = alloca i32, align 4
  %7 = alloca ptr, align 8
  %8 = alloca ptr, align 8
  %9 = alloca ptr, align 8
  %10 = alloca i16, align 2
  %11 = alloca i16, align 2
  %12 = alloca ptr, align 8
  %13 = alloca ptr, align 8
  %14 = alloca i32, align 4
  %15 = alloca i32, align 4
  %16 = alloca i32, align 4
  %17 = alloca i32, align 4
  store ptr %0, ptr %7, align 8
  store ptr %1, ptr %8, align 8
  store ptr %2, ptr %9, align 8
  store i16 %3, ptr %10, align 2
  store i16 %4, ptr %11, align 2
  call void @llvm.lifetime.start.p0(i64 8, ptr %12) #8
  call void @llvm.lifetime.start.p0(i64 8, ptr %13) #8
  call void @llvm.lifetime.start.p0(i64 4, ptr %14) #8
  call void @llvm.lifetime.start.p0(i64 4, ptr %15) #8
  store i32 0, ptr %15, align 4
  %18 = load ptr, ptr %7, align 8
  %19 = load i16, ptr %10, align 2
  %20 = zext i16 %19 to i32
  %21 = call i32 @tvb_get_ntohl(ptr noundef %18, i32 noundef %20)
  store i32 %21, ptr %14, align 4
  %22 = load i32, ptr %14, align 4
  %23 = add i32 4, %22
  %24 = load i16, ptr %11, align 2
  %25 = zext i16 %24 to i32
  %26 = icmp ugt i32 %23, %25
  br i1 %26, label %27, label %41

27:                                               ; preds = %5
  %28 = load ptr, ptr %9, align 8
  %29 = load i32, ptr @hf_reload_fetchans, align 4
  %30 = load ptr, ptr %7, align 8
  %31 = load i16, ptr %10, align 2
  %32 = zext i16 %31 to i32
  %33 = load i16, ptr %11, align 2
  %34 = zext i16 %33 to i32
  %35 = call ptr @proto_tree_add_item(ptr noundef %28, i32 noundef %29, ptr noundef %30, i32 noundef %32, i32 noundef %34, i32 noundef 0)
  store ptr %35, ptr %12, align 8
  %36 = load ptr, ptr %8, align 8
  %37 = load ptr, ptr %12, align 8
  %38 = call ptr (ptr, ptr, ptr, ptr, ...) @expert_add_info_format(ptr noundef %36, ptr noundef %37, ptr noundef @ei_reload_truncated_field, ptr noundef @.str.721)
  %39 = load i16, ptr %11, align 2
  %40 = zext i16 %39 to i32
  store i32 %40, ptr %6, align 4
  store i32 1, ptr %16, align 4
  br label %92

41:                                               ; preds = %5
  %42 = load ptr, ptr %9, align 8
  %43 = load i32, ptr @hf_reload_fetchans, align 4
  %44 = load ptr, ptr %7, align 8
  %45 = load i16, ptr %10, align 2
  %46 = zext i16 %45 to i32
  %47 = load i32, ptr %14, align 4
  %48 = add i32 4, %47
  %49 = call ptr @proto_tree_add_item(ptr noundef %42, i32 noundef %43, ptr noundef %44, i32 noundef %46, i32 noundef %48, i32 noundef 0)
  store ptr %49, ptr %12, align 8
  %50 = load ptr, ptr %12, align 8
  %51 = load i32, ptr @ett_reload_fetchans, align 4
  %52 = call ptr @proto_item_add_subtree(ptr noundef %50, i32 noundef %51)
  store ptr %52, ptr %13, align 8
  %53 = load ptr, ptr %13, align 8
  %54 = load i32, ptr @hf_reload_length_uint32, align 4
  %55 = load ptr, ptr %7, align 8
  %56 = load i16, ptr %10, align 2
  %57 = zext i16 %56 to i32
  %58 = load i32, ptr %14, align 4
  %59 = call ptr @proto_tree_add_uint(ptr noundef %53, i32 noundef %54, ptr noundef %55, i32 noundef %57, i32 noundef 4, i32 noundef %58)
  br label %60

60:                                               ; preds = %88, %41
  %61 = load i32, ptr %15, align 4
  %62 = load i32, ptr %14, align 4
  %63 = icmp ult i32 %61, %62
  br i1 %63, label %64, label %89

64:                                               ; preds = %60
  call void @llvm.lifetime.start.p0(i64 4, ptr %17) #8
  %65 = load ptr, ptr %7, align 8
  %66 = load ptr, ptr %8, align 8
  %67 = load ptr, ptr %13, align 8
  %68 = load i16, ptr %10, align 2
  %69 = zext i16 %68 to i32
  %70 = add i32 %69, 4
  %71 = load i32, ptr %15, align 4
  %72 = add i32 %70, %71
  %73 = trunc i32 %72 to i16
  %74 = load i32, ptr %14, align 4
  %75 = load i32, ptr %15, align 4
  %76 = sub i32 %74, %75
  %77 = trunc i32 %76 to i16
  %78 = call i32 @dissect_kinddata(ptr noundef %65, ptr noundef %66, ptr noundef %67, i16 noundef zeroext %73, i16 noundef zeroext %77, i1 noundef zeroext false)
  store i32 %78, ptr %17, align 4
  %79 = load i32, ptr %17, align 4
  %80 = icmp eq i32 %79, 0
  br i1 %80, label %81, label %82

81:                                               ; preds = %64
  store i32 3, ptr %16, align 4
  br label %86

82:                                               ; preds = %64
  %83 = load i32, ptr %17, align 4
  %84 = load i32, ptr %15, align 4
  %85 = add i32 %84, %83
  store i32 %85, ptr %15, align 4
  store i32 0, ptr %16, align 4
  br label %86

86:                                               ; preds = %82, %81
  call void @llvm.lifetime.end.p0(i64 4, ptr %17) #8
  %87 = load i32, ptr %16, align 4
  switch i32 %87, label %94 [
    i32 0, label %88
    i32 3, label %89
  ]

88:                                               ; preds = %86
  br label %60, !llvm.loop !18

89:                                               ; preds = %86, %60
  %90 = load i32, ptr %14, align 4
  %91 = add i32 4, %90
  store i32 %91, ptr %6, align 4
  store i32 1, ptr %16, align 4
  br label %92

92:                                               ; preds = %89, %27
  call void @llvm.lifetime.end.p0(i64 4, ptr %15) #8
  call void @llvm.lifetime.end.p0(i64 4, ptr %14) #8
  call void @llvm.lifetime.end.p0(i64 8, ptr %13) #8
  call void @llvm.lifetime.end.p0(i64 8, ptr %12) #8
  %93 = load i32, ptr %6, align 4
  ret i32 %93

94:                                               ; preds = %86
  unreachable
}