; Function Attrs: null_pointer_is_valid sspstrong uwtable
define internal fastcc void @dissect_fetchans(ptr noundef %0, ptr noundef %1, ptr noundef %2, i16 noundef zeroext %3, i16 noundef zeroext %4) unnamed_addr #0 {
  %6 = zext i16 %3 to i32
  %7 = tail call i32 @tvb_get_ntohl(ptr noundef %0, i32 noundef %6)
  %8 = add i32 %7, 4
  %9 = zext i16 %4 to i32
  %10 = icmp ugt i32 %8, %9
  %11 = load i32, ptr @hf_reload_fetchans, align 4
  br i1 %10, label %12, label %15

12:                                               ; preds = %5
  %13 = tail call ptr @proto_tree_add_item(ptr noundef %2, i32 noundef %11, ptr noundef %0, i32 noundef %6, i32 noundef %9, i32 noundef 0)
  %14 = tail call ptr (ptr, ptr, ptr, ptr, ...) @expert_add_info_format(ptr noundef %1, ptr noundef %13, ptr noundef nonnull @ei_reload_truncated_field, ptr noundef nonnull @.str.721)
  br label %.loopexit

15:                                               ; preds = %5
  %16 = tail call ptr @proto_tree_add_item(ptr noundef %2, i32 noundef %11, ptr noundef %0, i32 noundef %6, i32 noundef %8, i32 noundef 0)
  %17 = load i32, ptr @ett_reload_fetchans, align 4
  %18 = tail call ptr @proto_item_add_subtree(ptr noundef %16, i32 noundef %17)
  %19 = load i32, ptr @hf_reload_length_uint32, align 4
  %20 = tail call ptr @proto_tree_add_uint(ptr noundef %18, i32 noundef %19, ptr noundef %0, i32 noundef %6, i32 noundef 4, i32 noundef %7)
  %21 = add nuw nsw i32 %6, 4
  br label %22

22:                                               ; preds = %24, %15
  %.035 = phi i32 [ 0, %15 ], [ %31, %24 ]
  %23 = icmp ult i32 %.035, %7
  br i1 %23, label %24, label %.loopexit

24:                                               ; preds = %22
  %25 = add i32 %21, %.035
  %26 = trunc i32 %25 to i16
  %27 = sub nuw i32 %7, %.035
  %28 = trunc i32 %27 to i16
  %29 = tail call fastcc i32 @dissect_kinddata(ptr noundef %0, ptr noundef %1, ptr noundef %18, i16 noundef zeroext %26, i16 noundef zeroext %28, i1 noundef zeroext false)
  %30 = icmp eq i32 %29, 0
  %31 = add i32 %29, %.035
  br i1 %30, label %.loopexit, label %22

.loopexit:                                        ; preds = %24, %22, %12
  ret void
}